target datalayout = "e-m:e-p270:32:32-p271:32:32-p272:64:64-i64:64-i128:128-f80:128-n8:16:32:64-S128"
target triple = "x86_64-pc-linux-gnu"

%"struct.pkpy::Str" = type { i32, i8, ptr, [16 x i8] }

@_ZN4pkpy3StrC1Eib = unnamed_addr alias void (ptr, i32, i1), ptr @_ZN4pkpy3StrC2Eib
@_ZN4pkpy3StrD1Ev = unnamed_addr alias void (ptr), ptr @_ZN4pkpy3StrD2Ev

; Function Attrs: mustprogress uwtable
define void @_ZNK4pkpy3Str6substrEii(ptr dead_on_unwind noalias writable sret(%"struct.pkpy::Str") align 8 %0, ptr noundef nonnull align 8 dereferenceable(32) %1, i32 noundef %2, i32 noundef %3) #4 align 2 {
  %5 = alloca ptr, align 8
  %6 = alloca ptr, align 8
  %7 = alloca i32, align 4
  %8 = alloca i32, align 4
  %9 = alloca i1, align 1
  store ptr %0, ptr %5, align 8
  store ptr %1, ptr %6, align 8
  store i32 %2, ptr %7, align 4
  store i32 %3, ptr %8, align 4
  %10 = load ptr, ptr %6, align 8
  store i1 false, ptr %9, align 1
  %11 = load i32, ptr %8, align 4
  %12 = getelementptr inbounds %"struct.pkpy::Str", ptr %10, i32 0, i32 1
  %13 = load i8, ptr %12, align 4
  %14 = trunc i8 %13 to i1
  call void @_ZN4pkpy3StrC1Eib(ptr noundef nonnull align 8 dereferenceable(32) %0, i32 noundef %11, i1 noundef zeroext %14)
  %15 = getelementptr inbounds %"struct.pkpy::Str", ptr %0, i32 0, i32 2
  %16 = load ptr, ptr %15, align 8
  %17 = getelementptr inbounds %"struct.pkpy::Str", ptr %10, i32 0, i32 2
  %18 = load ptr, ptr %17, align 8
  %19 = load i32, ptr %7, align 4
  %20 = sext i32 %19 to i64
  %21 = getelementptr inbounds i8, ptr %18, i64 %20
  %22 = load i32, ptr %8, align 4
  %23 = sext i32 %22 to i64
  call void @llvm.memcpy.p0.p0.i64(ptr align 1 %16, ptr align 1 %21, i64 %23, i1 false)
  %24 = getelementptr inbounds %"struct.pkpy::Str", ptr %0, i32 0, i32 2
  %25 = load ptr, ptr %24, align 8
  %26 = load i32, ptr %8, align 4
  %27 = sext i32 %26 to i64
  %28 = getelementptr inbounds i8, ptr %25, i64 %27
  store i8 0, ptr %28, align 1
  store i1 true, ptr %9, align 1
  %29 = load i1, ptr %9, align 1
  br i1 %29, label %31, label %30

30:                                               ; preds = %4
  call void @_ZN4pkpy3StrD1Ev(ptr noundef nonnull align 8 dereferenceable(32) %0) #3
  br label %31

31:                                               ; preds = %30, %4
  ret void
}

; Function Attrs: mustprogress uwtable
define noundef i32 @_ZNK4pkpy3Str22_unicode_index_to_byteEi(ptr noundef nonnull align 8 dereferenceable(32) %0, i32 noundef %1) #4 align 2 {
  %3 = alloca i32, align 4
  %4 = alloca ptr, align 8
  %5 = alloca i32, align 4
  %6 = alloca i32, align 4
  store ptr %0, ptr %4, align 8
  store i32 %1, ptr %5, align 4
  %7 = load ptr, ptr %4, align 8
  %8 = getelementptr inbounds %"struct.pkpy::Str", ptr %7, i32 0, i32 1
  %9 = load i8, ptr %8, align 4
  %10 = trunc i8 %9 to i1
  br i1 %10, label %11, label %13

11:                                               ; preds = %2
  %12 = load i32, ptr %5, align 4
  store i32 %12, ptr %3, align 4
  br label %31

13:                                               ; preds = %2
  store i32 0, ptr %6, align 4
  br label %14

14:                                               ; preds = %17, %13
  %15 = load i32, ptr %5, align 4
  %16 = icmp sgt i32 %15, 0
  br i1 %16, label %17, label %29

17:                                               ; preds = %14
  %18 = getelementptr inbounds %"struct.pkpy::Str", ptr %7, i32 0, i32 2
  %19 = load ptr, ptr %18, align 8
  %20 = load i32, ptr %6, align 4
  %21 = sext i32 %20 to i64
  %22 = getelementptr inbounds i8, ptr %19, i64 %21
  %23 = load i8, ptr %22, align 1
  %24 = call noundef i32 @_ZN4pkpy7utf8lenEhb(i8 noundef zeroext %23, i1 noundef zeroext false)
  %25 = load i32, ptr %6, align 4
  %26 = add nsw i32 %25, %24
  store i32 %26, ptr %6, align 4
  %27 = load i32, ptr %5, align 4
  %28 = add nsw i32 %27, -1
  store i32 %28, ptr %5, align 4
  br label %14, !llvm.loop !22

29:                                               ; preds = %14
  %30 = load i32, ptr %6, align 4
  store i32 %30, ptr %3, align 4
  br label %31

31:                                               ; preds = %29, %11
  %32 = load i32, ptr %3, align 4
  ret i32 %32
}

; Function Attrs: mustprogress uwtable
define void @_ZNK4pkpy3Str10u8_getitemEi(ptr dead_on_unwind noalias writable sret(%"struct.pkpy::Str") align 8 %0, ptr noundef nonnull align 8 dereferenceable(32) %1, i32 noundef %2) #4 align 2 {
  %4 = alloca ptr, align 8
  %5 = alloca ptr, align 8
  %6 = alloca i32, align 4
  store ptr %0, ptr %4, align 8
  store ptr %1, ptr %5, align 8
  store i32 %2, ptr %6, align 4
  %7 = load ptr, ptr %5, align 8
  %8 = load i32, ptr %6, align 4
  %9 = call noundef i32 @_ZNK4pkpy3Str22_unicode_index_to_byteEi(ptr noundef nonnull align 8 dereferenceable(32) %7, i32 noundef %8)
  store i32 %9, ptr %6, align 4
  %10 = load i32, ptr %6, align 4
  %11 = getelementptr inbounds %"struct.pkpy::Str", ptr %7, i32 0, i32 2
  %12 = load ptr, ptr %11, align 8
  %13 = load i32, ptr %6, align 4
  %14 = sext i32 %13 to i64
  %15 = getelementptr inbounds i8, ptr %12, i64 %14
  %16 = load i8, ptr %15, align 1
  %17 = call noundef i32 @_ZN4pkpy7utf8lenEhb(i8 noundef zeroext %16, i1 noundef zeroext false)
  call void @_ZNK4pkpy3Str6substrEii(ptr dead_on_unwind writable sret(%"struct.pkpy::Str") align 8 %0, ptr noundef nonnull align 8 dereferenceable(32) %7, i32 noundef %10, i32 noundef %17)
  ret void
}