; Function Attrs: mustprogress uwtable
define void @_ZNK4pkpy3Str10u8_getitemEi(ptr dead_on_unwind noalias writable sret(%"struct.pkpy::Str") align 8 %0, ptr nocapture noundef nonnull readonly align 8 dereferenceable(32) %1, i32 noundef %2) local_unnamed_addr #3 align 2 {
  %4 = getelementptr inbounds i8, ptr %1, i64 4
  %5 = load i8, ptr %4, align 4
  %6 = trunc i8 %5 to i1
  br i1 %6, label %_ZNK4pkpy3Str22_unicode_index_to_byteEi.exit, label %.preheader.i

.preheader.i:                                     ; preds = %3
  %7 = icmp sgt i32 %2, 0
  br i1 %7, label %.lr.ph.i, label %_ZNK4pkpy3Str22_unicode_index_to_byteEi.exit

.lr.ph.i:                                         ; preds = %.preheader.i
  %8 = getelementptr inbounds i8, ptr %1, i64 8
  br label %9

9:                                                ; preds = %9, %.lr.ph.i
  %.010.i = phi i32 [ 0, %.lr.ph.i ], [ %15, %9 ]
  %.079.i = phi i32 [ %2, %.lr.ph.i ], [ %16, %9 ]
  %10 = load ptr, ptr %8, align 8
  %11 = zext nneg i32 %.010.i to i64
  %12 = getelementptr inbounds i8, ptr %10, i64 %11
  %13 = load i8, ptr %12, align 1
  %14 = tail call noundef i32 @_ZN4pkpy7utf8lenEhb(i8 noundef zeroext %13, i1 noundef zeroext false)
  %15 = add nuw nsw i32 %14, %.010.i
  %16 = add nsw i32 %.079.i, -1
  %17 = icmp ugt i32 %.079.i, 1
  br i1 %17, label %9, label %_ZNK4pkpy3Str22_unicode_index_to_byteEi.exit, !llvm.loop !26

_ZNK4pkpy3Str22_unicode_index_to_byteEi.exit:     ; preds = %9, %3, %.preheader.i
  %.08.i = phi i32 [ %2, %3 ], [ 0, %.preheader.i ], [ %15, %9 ]
  %18 = getelementptr inbounds i8, ptr %1, i64 8
  %19 = load ptr, ptr %18, align 8
  %20 = sext i32 %.08.i to i64
  %21 = getelementptr inbounds i8, ptr %19, i64 %20
  %22 = load i8, ptr %21, align 1
  %23 = tail call noundef i32 @_ZN4pkpy7utf8lenEhb(i8 noundef zeroext %22, i1 noundef zeroext false)
  tail call void @llvm.experimental.noalias.scope.decl(metadata !40)
  %24 = load i8, ptr %4, align 4, !noalias !40
  %25 = trunc i8 %24 to i1
  tail call void @_ZN4pkpy3StrC1Eib(ptr noundef nonnull align 8 dereferenceable(32) %0, i32 noundef %23, i1 noundef zeroext %25)
  %26 = getelementptr inbounds i8, ptr %0, i64 8
  %27 = load ptr, ptr %26, align 8, !alias.scope !40
  %28 = load ptr, ptr %18, align 8, !noalias !40
  %29 = getelementptr inbounds i8, ptr %28, i64 %20
  %30 = zext nneg i32 %23 to i64
  tail call void @llvm.memcpy.p0.p0.i64(ptr align 1 %27, ptr align 1 %29, i64 %30, i1 false)
  %31 = load ptr, ptr %26, align 8, !alias.scope !40
  %32 = getelementptr inbounds i8, ptr %31, i64 %30
  store i8 0, ptr %32, align 1
  ret void
}